; Function Attrs: nofree nosync nounwind memory(readwrite, inaccessiblemem: none) uwtable
define range(i32 0, 2) i32 @Ssc_GiaSimulatePatternFraig_rec(ptr noundef %0, i32 noundef %1) local_unnamed_addr #9 {
  %3 = getelementptr i8, ptr %0, i64 40
  %.val = load ptr, ptr %3, align 8, !tbaa !78
  %4 = getelementptr i8, ptr %.val, i64 8
  %.val.val = load ptr, ptr %4, align 8, !tbaa !14
  %5 = sext i32 %1 to i64
  %6 = getelementptr inbounds i32, ptr %.val.val, i64 %5
  %7 = load i32, ptr %6, align 4, !tbaa !44
  %.not = icmp eq i32 %7, 0
  br i1 %.not, label %16, label %common.ret

common.ret:                                       ; preds = %2
  %8 = getelementptr inbounds nuw i8, ptr %0, i64 32
  %9 = load ptr, ptr %8, align 8, !tbaa !17
  %10 = getelementptr i8, ptr %9, i64 328
  %.val20 = load ptr, ptr %10, align 8, !tbaa !79
  %11 = sext i32 %7 to i64
  %12 = getelementptr inbounds i32, ptr %.val20, i64 %11
  %13 = load i32, ptr %12, align 4, !tbaa !44
  %14 = icmp eq i32 %13, 1
  %15 = zext i1 %14 to i32
  br label %common.ret26

common.ret26:                                     ; preds = %16, %common.ret
  %common.ret26.op = phi i32 [ %15, %common.ret ], [ %37, %16 ]
  ret i32 %common.ret26.op

16:                                               ; preds = %2
  %17 = getelementptr inbounds nuw i8, ptr %0, i64 24
  %18 = load ptr, ptr %17, align 8, !tbaa !26
  %19 = getelementptr i8, ptr %18, i64 32
  %.val21 = load ptr, ptr %19, align 8, !tbaa !80
  %20 = getelementptr inbounds %struct.Gia_Obj_t_, ptr %.val21, i64 %5
  %.val22 = load i64, ptr %20, align 4
  %21 = trunc i64 %.val22 to i32
  %22 = and i32 %21, 536870911
  %23 = sub nsw i32 %1, %22
  %24 = tail call i32 @Ssc_GiaSimulatePatternFraig_rec(ptr noundef nonnull %0, i32 noundef %23)
  %.val23 = load i64, ptr %20, align 4
  %25 = lshr i64 %.val23, 32
  %26 = trunc nuw i64 %25 to i32
  %27 = and i32 %26, 536870911
  %28 = sub nsw i32 %1, %27
  %29 = tail call i32 @Ssc_GiaSimulatePatternFraig_rec(ptr noundef nonnull %0, i32 noundef %28)
  %.val24 = load i64, ptr %20, align 4
  %30 = trunc i64 %.val24 to i32
  %31 = lshr i32 %30, 29
  %32 = xor i32 %31, %24
  %33 = lshr i64 %.val24, 61
  %34 = trunc nuw nsw i64 %33 to i32
  %35 = and i32 %34, 1
  %36 = xor i32 %35, %29
  %37 = and i32 %36, %32
  %38 = shl nuw nsw i32 %37, 30
  %39 = zext nneg i32 %38 to i64
  %40 = and i64 %.val24, -1073741825
  %41 = or disjoint i64 %40, %39
  store i64 %41, ptr %20, align 4
  br label %common.ret26
}